target datalayout = "e-m:e-p270:32:32-p271:32:32-p272:64:64-i64:64-i128:128-f80:128-n8:16:32:64-S128"
target triple = "x86_64-pc-linux-gnu"

%struct.ssl_ecdh_method_st = type { i32, i16, [8 x i8], ptr, ptr, ptr }
%struct.ssl_ecdh_ctx_st = type { ptr, ptr }

@kDHEMethod = internal constant { i32, i16, [8 x i8], [2 x i8], ptr, ptr, ptr } { i32 0, i16 0, [8 x i8] zeroinitializer, [2 x i8] zeroinitializer, ptr @ssl_dhe_cleanup, ptr @ssl_dhe_generate_keypair, ptr @ssl_dhe_compute_secret }, align 8

; Function Attrs: nounwind uwtable
define hidden void @SSL_ECDH_CTX_cleanup(ptr noundef %0) #0 {
  %2 = alloca ptr, align 8
  store ptr %0, ptr %2, align 8, !tbaa !25
  %3 = load ptr, ptr %2, align 8, !tbaa !25
  %4 = getelementptr inbounds nuw %struct.ssl_ecdh_ctx_st, ptr %3, i32 0, i32 0
  %5 = load ptr, ptr %4, align 8, !tbaa !27
  %6 = icmp eq ptr %5, null
  br i1 %6, label %7, label %8

7:                                                ; preds = %1
  br label %19

8:                                                ; preds = %1
  %9 = load ptr, ptr %2, align 8, !tbaa !25
  %10 = getelementptr inbounds nuw %struct.ssl_ecdh_ctx_st, ptr %9, i32 0, i32 0
  %11 = load ptr, ptr %10, align 8, !tbaa !27
  %12 = getelementptr inbounds nuw %struct.ssl_ecdh_method_st, ptr %11, i32 0, i32 3
  %13 = load ptr, ptr %12, align 8, !tbaa !29
  %14 = load ptr, ptr %2, align 8, !tbaa !25
  call void %13(ptr noundef %14)
  %15 = load ptr, ptr %2, align 8, !tbaa !25
  %16 = getelementptr inbounds nuw %struct.ssl_ecdh_ctx_st, ptr %15, i32 0, i32 0
  store ptr null, ptr %16, align 8, !tbaa !27
  %17 = load ptr, ptr %2, align 8, !tbaa !25
  %18 = getelementptr inbounds nuw %struct.ssl_ecdh_ctx_st, ptr %17, i32 0, i32 1
  store ptr null, ptr %18, align 8, !tbaa !30
  br label %19

19:                                               ; preds = %8, %7
  ret void
}

; Function Attrs: nounwind uwtable
define hidden void @SSL_ECDH_CTX_init_for_dhe(ptr noundef %0, ptr noundef %1) #0 {
  %3 = alloca ptr, align 8
  %4 = alloca ptr, align 8
  store ptr %0, ptr %3, align 8, !tbaa !25
  store ptr %1, ptr %4, align 8, !tbaa !31
  %5 = load ptr, ptr %3, align 8, !tbaa !25
  call void @SSL_ECDH_CTX_cleanup(ptr noundef %5)
  %6 = load ptr, ptr %3, align 8, !tbaa !25
  %7 = getelementptr inbounds nuw %struct.ssl_ecdh_ctx_st, ptr %6, i32 0, i32 0
  store ptr @kDHEMethod, ptr %7, align 8, !tbaa !27
  %8 = load ptr, ptr %4, align 8, !tbaa !31
  %9 = load ptr, ptr %3, align 8, !tbaa !25
  %10 = getelementptr inbounds nuw %struct.ssl_ecdh_ctx_st, ptr %9, i32 0, i32 1
  store ptr %8, ptr %10, align 8, !tbaa !30
  ret void
}