; Function Attrs: nounwind uwtable
define hidden void @SSL_ECDH_CTX_init_for_dhe(ptr noundef %0, ptr noundef %1) local_unnamed_addr #3 {
  %3 = load ptr, ptr %0, align 8, !tbaa !18
  %4 = icmp eq ptr %3, null
  br i1 %4, label %SSL_ECDH_CTX_cleanup.exit, label %5

5:                                                ; preds = %2
  %6 = getelementptr inbounds nuw i8, ptr %3, i64 16
  %7 = load ptr, ptr %6, align 8, !tbaa !21
  tail call void %7(ptr noundef nonnull %0) #8
  br label %SSL_ECDH_CTX_cleanup.exit

SSL_ECDH_CTX_cleanup.exit:                        ; preds = %2, %5
  store ptr @kDHEMethod, ptr %0, align 8, !tbaa !18
  %8 = getelementptr inbounds nuw i8, ptr %0, i64 8
  store ptr %1, ptr %8, align 8, !tbaa !22
  ret void
}